target datalayout = "e-m:e-p270:32:32-p271:32:32-p272:64:64-i64:64-i128:128-f80:128-n8:16:32:64-S128"
target triple = "x86_64-pc-linux-gnu"

%struct.cJSON = type { ptr, ptr, ptr, i32, ptr, i32, double, ptr }

; Function Attrs: nounwind sspstrong uwtable
define i32 @cJSON_GetArraySize(ptr noundef %0) #0 {
  %2 = alloca i32, align 4
  %3 = alloca ptr, align 8
  %4 = alloca ptr, align 8
  %5 = alloca i64, align 8
  %6 = alloca i32, align 4
  store ptr %0, ptr %3, align 8, !tbaa !11
  call void @llvm.lifetime.start.p0(i64 8, ptr %4) #10
  store ptr null, ptr %4, align 8, !tbaa !11
  call void @llvm.lifetime.start.p0(i64 8, ptr %5) #10
  store i64 0, ptr %5, align 8, !tbaa !34
  %7 = load ptr, ptr %3, align 8, !tbaa !11
  %8 = icmp eq ptr %7, null
  br i1 %8, label %9, label %10

9:                                                ; preds = %1
  store i32 0, ptr %2, align 4
  store i32 1, ptr %6, align 4
  br label %26

10:                                               ; preds = %1
  %11 = load ptr, ptr %3, align 8, !tbaa !11
  %12 = getelementptr inbounds nuw %struct.cJSON, ptr %11, i32 0, i32 2
  %13 = load ptr, ptr %12, align 8, !tbaa !29
  store ptr %13, ptr %4, align 8, !tbaa !11
  br label %14

14:                                               ; preds = %17, %10
  %15 = load ptr, ptr %4, align 8, !tbaa !11
  %16 = icmp ne ptr %15, null
  br i1 %16, label %17, label %23

17:                                               ; preds = %14
  %18 = load i64, ptr %5, align 8, !tbaa !34
  %19 = add i64 %18, 1
  store i64 %19, ptr %5, align 8, !tbaa !34
  %20 = load ptr, ptr %4, align 8, !tbaa !11
  %21 = getelementptr inbounds nuw %struct.cJSON, ptr %20, i32 0, i32 0
  %22 = load ptr, ptr %21, align 8, !tbaa !28
  store ptr %22, ptr %4, align 8, !tbaa !11
  br label %14

23:                                               ; preds = %14
  %24 = load i64, ptr %5, align 8, !tbaa !34
  %25 = trunc i64 %24 to i32
  store i32 %25, ptr %2, align 4
  store i32 1, ptr %6, align 4
  br label %26

26:                                               ; preds = %23, %9
  call void @llvm.lifetime.end.p0(i64 8, ptr %5) #10
  call void @llvm.lifetime.end.p0(i64 8, ptr %4) #10
  %27 = load i32, ptr %2, align 4
  ret i32 %27
}