; Function Attrs: nofree norecurse nosync nounwind sspstrong memory(read, inaccessiblemem: none) uwtable
define i32 @cJSON_GetArraySize(ptr noundef readonly %0) local_unnamed_addr #16 {
  %2 = icmp eq ptr %0, null
  br i1 %2, label %.loopexit, label %3

3:                                                ; preds = %1
  %4 = getelementptr inbounds nuw i8, ptr %0, i64 16
  br label %5

5:                                                ; preds = %5, %3
  %.06.in = phi ptr [ %4, %3 ], [ %.06, %5 ]
  %.0 = phi i32 [ 0, %3 ], [ %6, %5 ]
  %.06 = load ptr, ptr %.06.in, align 8, !tbaa !53
  %.not = icmp eq ptr %.06, null
  %6 = add i32 %.0, 1
  br i1 %.not, label %.loopexit, label %5

.loopexit:                                        ; preds = %5, %1
  %.07 = phi i32 [ 0, %1 ], [ %.0, %5 ]
  ret i32 %.07
}